target datalayout = "e-m:e-p270:32:32-p271:32:32-p272:64:64-i64:64-i128:128-f80:128-n8:16:32:64-S128"
target triple = "x86_64-pc-linux-gnu"

; Function Attrs: nounwind uwtable
define void @ff_g723_1_get_residual(ptr noundef %0, ptr noundef %1, i32 noundef %2) #0 {
  %4 = alloca ptr, align 8
  %5 = alloca ptr, align 8
  %6 = alloca i32, align 4
  %7 = alloca i32, align 4
  %8 = alloca i32, align 4
  store ptr %0, ptr %4, align 8, !tbaa !4
  store ptr %1, ptr %5, align 8, !tbaa !4
  store i32 %2, ptr %6, align 4, !tbaa !9
  call void @llvm.lifetime.start.p0(i64 4, ptr %7) #6
  %9 = load i32, ptr %6, align 4, !tbaa !9
  %10 = sub nsw i32 143, %9
  store i32 %10, ptr %7, align 4, !tbaa !9
  call void @llvm.lifetime.start.p0(i64 4, ptr %8) #6
  %11 = load ptr, ptr %5, align 8, !tbaa !4
  %12 = load i32, ptr %7, align 4, !tbaa !9
  %13 = sext i32 %12 to i64
  %14 = getelementptr inbounds i16, ptr %11, i64 %13
  %15 = load i16, ptr %14, align 2, !tbaa !11
  %16 = load ptr, ptr %4, align 8, !tbaa !4
  %17 = getelementptr inbounds i16, ptr %16, i64 0
  store i16 %15, ptr %17, align 2, !tbaa !11
  %18 = load ptr, ptr %5, align 8, !tbaa !4
  %19 = load i32, ptr %7, align 4, !tbaa !9
  %20 = add nsw i32 %19, 1
  %21 = sext i32 %20 to i64
  %22 = getelementptr inbounds i16, ptr %18, i64 %21
  %23 = load i16, ptr %22, align 2, !tbaa !11
  %24 = load ptr, ptr %4, align 8, !tbaa !4
  %25 = getelementptr inbounds i16, ptr %24, i64 1
  store i16 %23, ptr %25, align 2, !tbaa !11
  %26 = load i32, ptr %7, align 4, !tbaa !9
  %27 = add nsw i32 %26, 2
  store i32 %27, ptr %7, align 4, !tbaa !9
  store i32 2, ptr %8, align 4, !tbaa !9
  br label %28

28:                                               ; preds = %46, %3
  %29 = load i32, ptr %8, align 4, !tbaa !9
  %30 = icmp slt i32 %29, 64
  br i1 %30, label %31, label %49

31:                                               ; preds = %28
  %32 = load ptr, ptr %5, align 8, !tbaa !4
  %33 = load i32, ptr %7, align 4, !tbaa !9
  %34 = load i32, ptr %8, align 4, !tbaa !9
  %35 = sub nsw i32 %34, 2
  %36 = load i32, ptr %6, align 4, !tbaa !9
  %37 = srem i32 %35, %36
  %38 = add nsw i32 %33, %37
  %39 = sext i32 %38 to i64
  %40 = getelementptr inbounds i16, ptr %32, i64 %39
  %41 = load i16, ptr %40, align 2, !tbaa !11
  %42 = load ptr, ptr %4, align 8, !tbaa !4
  %43 = load i32, ptr %8, align 4, !tbaa !9
  %44 = sext i32 %43 to i64
  %45 = getelementptr inbounds i16, ptr %42, i64 %44
  store i16 %41, ptr %45, align 2, !tbaa !11
  br label %46

46:                                               ; preds = %31
  %47 = load i32, ptr %8, align 4, !tbaa !9
  %48 = add nsw i32 %47, 1
  store i32 %48, ptr %8, align 4, !tbaa !9
  br label %28, !llvm.loop !17

49:                                               ; preds = %28
  call void @llvm.lifetime.end.p0(i64 4, ptr %8) #6
  call void @llvm.lifetime.end.p0(i64 4, ptr %7) #6
  ret void
}