; Function Attrs: nofree norecurse nosync nounwind memory(argmem: readwrite) uwtable
define void @ff_g723_1_get_residual(ptr noundef writeonly captures(none) initializes((0, 4)) %0, ptr noundef readonly captures(none) %1, i32 noundef %2) local_unnamed_addr #0 {
  %4 = sub nsw i32 143, %2
  %5 = sext i32 %4 to i64
  %6 = getelementptr inbounds i16, ptr %1, i64 %5
  %7 = load i16, ptr %6, align 2, !tbaa !4
  store i16 %7, ptr %0, align 2, !tbaa !4
  %8 = sub i32 144, %2
  %9 = sext i32 %8 to i64
  %10 = getelementptr inbounds i16, ptr %1, i64 %9
  %11 = load i16, ptr %10, align 2, !tbaa !4
  %12 = getelementptr inbounds nuw i8, ptr %0, i64 2
  store i16 %11, ptr %12, align 2, !tbaa !4
  br label %13

13:                                               ; preds = %3, %13
  %indvars.iv = phi i64 [ 2, %3 ], [ %indvars.iv.next, %13 ]
  %14 = trunc i64 %indvars.iv to i32
  %15 = add i32 %14, -2
  %16 = srem i32 %15, %2
  %reass.sub16 = sub i32 %16, %2
  %17 = add i32 %reass.sub16, 145
  %18 = sext i32 %17 to i64
  %19 = getelementptr inbounds i16, ptr %1, i64 %18
  %20 = load i16, ptr %19, align 2, !tbaa !4
  %21 = getelementptr inbounds nuw i16, ptr %0, i64 %indvars.iv
  store i16 %20, ptr %21, align 2, !tbaa !4
  %indvars.iv.next = add nuw nsw i64 %indvars.iv, 1
  %exitcond.not = icmp eq i64 %indvars.iv.next, 64
  br i1 %exitcond.not, label %22, label %13, !llvm.loop !12

22:                                               ; preds = %13
  ret void
}